(dp0
Vengine
p1
Vpdflatex
p2
sVpackages
p3
c__builtin__
set
p4
((lp5
Venumitem
p6
aVxcolor
p7
aVstmaryrd
p8
aVbooktabs
p9
aVcolor
p10
aVcaption
p11
aVsoul
p12
aVpdfrender
p13
aVrotating
p14
aVmultirow
p15
aVmulticol
p16
aValgorithm2e
p17
aVanyfontsize
p18
aVamsthm
p19
aVarray
p20
aVbalance
p21
aVsubcaption
p22
aVcolortbl
p23
atp24
Rp25
sVfiles_with_guttermarks
p26
g4
((lp27
V/Users/anna/Dropbox/Paper/4_synthesizing-data-invariants_1.tex
p28
aV/Users/anna/Dropbox/Paper/6_experiment.tex
p29
aV/Users/anna/Desktop/Paper/./6_experiment.tex
p30
aV/Users/anna/Dropbox/Paper/./4_synthesizing-data-invariants_1.tex
p31
aV/Users/anna/Dropbox/Work/Research/Conformance Constraints/CC-Paper/SIGMOD/Camera-Ready/3_data-invariants.tex
p32
aS'paper.tex'
p33
aV/Users/anna/Desktop/Paper/3_data-invariants.tex
p34
aV/Users/anna/Desktop/Paper/6_experiment.tex
p35
aV/Users/anna/Dropbox/Paper/./6_experiment.tex
p36
aV/Users/anna/Dropbox/Paper/3_data-invariants.tex
p37
atp38
Rp39
sVsynctex
p40
I01
s.